target datalayout = "e-m:e-p270:32:32-p271:32:32-p272:64:64-i64:64-i128:128-f80:128-n8:16:32:64-S128"
target triple = "x86_64-pc-linux-gnu"

%class.bit_vector = type { i32, i32, ptr }

; Function Attrs: mustprogress uwtable
define hidden void @_ZN10bit_vector9expand_toEj(ptr noundef nonnull align 8 dereferenceable(16) %0, i32 noundef %1) #4 align 2 {
  %3 = alloca ptr, align 8
  %4 = alloca i32, align 4
  store ptr %0, ptr %3, align 8, !tbaa !3
  store i32 %1, ptr %4, align 4, !tbaa !8
  %5 = load ptr, ptr %3, align 8
  %6 = getelementptr inbounds nuw %class.bit_vector, ptr %5, i32 0, i32 2
  %7 = load ptr, ptr %6, align 8, !tbaa !10
  %8 = icmp ne ptr %7, null
  br i1 %8, label %9, label %17

9:                                                ; preds = %2
  %10 = getelementptr inbounds nuw %class.bit_vector, ptr %5, i32 0, i32 2
  %11 = load ptr, ptr %10, align 8, !tbaa !10
  %12 = load i32, ptr %4, align 4, !tbaa !8
  %13 = zext i32 %12 to i64
  %14 = mul i64 %13, 4
  %15 = call noalias noundef ptr @_ZN6memory10reallocateEPvm(ptr noundef %11, i64 noundef %14)
  %16 = getelementptr inbounds nuw %class.bit_vector, ptr %5, i32 0, i32 2
  store ptr %15, ptr %16, align 8, !tbaa !10
  br label %23

17:                                               ; preds = %2
  %18 = load i32, ptr %4, align 4, !tbaa !8
  %19 = zext i32 %18 to i64
  %20 = mul i64 4, %19
  %21 = call noalias noundef ptr @_ZN6memory8allocateEm(i64 noundef %20)
  %22 = getelementptr inbounds nuw %class.bit_vector, ptr %5, i32 0, i32 2
  store ptr %21, ptr %22, align 8, !tbaa !10
  br label %23

23:                                               ; preds = %17, %9
  %24 = getelementptr inbounds nuw %class.bit_vector, ptr %5, i32 0, i32 2
  %25 = load ptr, ptr %24, align 8, !tbaa !10
  %26 = getelementptr inbounds nuw %class.bit_vector, ptr %5, i32 0, i32 1
  %27 = load i32, ptr %26, align 4, !tbaa !13
  %28 = zext i32 %27 to i64
  %29 = getelementptr inbounds nuw i32, ptr %25, i64 %28
  %30 = load i32, ptr %4, align 4, !tbaa !8
  %31 = getelementptr inbounds nuw %class.bit_vector, ptr %5, i32 0, i32 1
  %32 = load i32, ptr %31, align 4, !tbaa !13
  %33 = sub i32 %30, %32
  %34 = zext i32 %33 to i64
  %35 = mul i64 %34, 4
  call void @llvm.memset.p0.i64(ptr align 4 %29, i8 0, i64 %35, i1 false)
  %36 = load i32, ptr %4, align 4, !tbaa !8
  %37 = getelementptr inbounds nuw %class.bit_vector, ptr %5, i32 0, i32 1
  store i32 %36, ptr %37, align 4, !tbaa !13
  ret void
}