; Function Attrs: mustprogress uwtable
define hidden void @_ZN10bit_vector9expand_toEj(ptr noundef nonnull align 8 captures(none) dereferenceable(16) %0, i32 noundef %1) local_unnamed_addr #3 align 2 {
  %3 = getelementptr inbounds nuw i8, ptr %0, i64 8
  %4 = load ptr, ptr %3, align 8, !tbaa !3
  %.not = icmp eq ptr %4, null
  %5 = zext i32 %1 to i64
  %6 = shl nuw nsw i64 %5, 2
  br i1 %.not, label %9, label %7

7:                                                ; preds = %2
  %8 = tail call noalias noundef ptr @_ZN6memory10reallocateEPvm(ptr noundef nonnull %4, i64 noundef %6)
  br label %11

9:                                                ; preds = %2
  %10 = tail call noalias noundef ptr @_ZN6memory8allocateEm(i64 noundef %6)
  br label %11

11:                                               ; preds = %9, %7
  %storemerge = phi ptr [ %10, %9 ], [ %8, %7 ]
  store ptr %storemerge, ptr %3, align 8, !tbaa !3
  %12 = getelementptr inbounds nuw i8, ptr %0, i64 4
  %13 = load i32, ptr %12, align 4, !tbaa !10
  %14 = zext i32 %13 to i64
  %15 = getelementptr inbounds nuw i32, ptr %storemerge, i64 %14
  %16 = sub i32 %1, %13
  %17 = zext i32 %16 to i64
  %18 = shl nuw nsw i64 %17, 2
  tail call void @llvm.memset.p0.i64(ptr align 4 %15, i8 0, i64 %18, i1 false)
  store i32 %1, ptr %12, align 4, !tbaa !10
  ret void
}